; Function Attrs: mustprogress nofree norecurse nosync nounwind willreturn memory(read, inaccessiblemem: none) uwtable
define dso_local ptr @AggGetTempMemoryContext(ptr noundef readonly captures(none) %0) local_unnamed_addr #7 {
  %2 = getelementptr inbounds nuw i8, ptr %0, i64 8
  %3 = load ptr, ptr %2, align 8
  %.not = icmp eq ptr %3, null
  br i1 %.not, label %12, label %4

4:                                                ; preds = %1
  %5 = load i32, ptr %3, align 4
  %6 = icmp eq i32 %5, 428
  br i1 %6, label %7, label %12

7:                                                ; preds = %4
  %8 = getelementptr inbounds nuw i8, ptr %3, i64 296
  %9 = load ptr, ptr %8, align 8
  %10 = getelementptr inbounds nuw i8, ptr %9, i64 40
  %11 = load ptr, ptr %10, align 8
  br label %12

12:                                               ; preds = %1, %4, %7
  %.0 = phi ptr [ %11, %7 ], [ null, %4 ], [ null, %1 ]
  ret ptr %.0
}